(iTAScontrol.properties.basicSpectrometer
basicSpectrometer
p0
(dp1
S'ROI'
p2
(lp3
I52
aI75
aI20
aI108
asS'axisLimitsDict'
p4
ccollections
OrderedDict
p5
((lp6
(lp7
S'mvfoc'
p8
a(lp9
I-2000
aI4100
aaa(lp10
S'monok'
p11
a(lp12
I17
aI90
aaa(lp13
S'monho'
p14
a(lp15
I34
aI126
aaa(lp16
S's2th'
p17
a(lp18
I-120
aI120
aaa(lp19
S'om'
p20
a(lp21
I0
aI355
aaa(lp22
S'ath'
p23
a(lp24
I-90
aI90
aaa(lp25
S'sadist'
p26
a(lp27
I600
aI1100
aaa(lp28
S'detang'
p29
a(lp30
I-142
aI142
aaa(lp31
S'mtrX'
p32
a(lp33
I-20
aI20
aaa(lp34
S'mtrY'
p35
a(lp36
I-20
aI20
aaa(lp37
S'mgL'
p38
a(lp39
I-5
aI5
aaa(lp40
S'mgU'
p41
a(lp42
I-5
aI5
aaa(lp43
S's1X'
p44
a(lp45
I0
aI40
aaa(lp46
S's1Y'
p47
a(lp48
I0
aI40
aaa(lp49
S's1L'
p50
a(lp51
I0
aI150
aaa(lp52
S's1U'
p53
a(lp54
I0
aI150
aaa(lp55
S's2X'
p56
a(lp57
I0
aI30
aaa(lp58
S's2Y'
p59
a(lp60
I0
aI30
aaa(lp61
S's2L'
p62
a(lp63
I0
aI120
aaa(lp64
S's2U'
p65
a(lp66
I0
aI120
aaa(lp67
S'strX'
p68
a(lp69
I-45
aI45
aaa(lp70
S'strY'
p71
a(lp72
I-45
aI45
aaa(lp73
S'antrX'
p74
a(lp75
F-12.1
aF11.3
aaa(lp76
S'antrY'
p77
a(lp78
F-12.5
aF12.2
aaa(lp79
S'angU'
p80
a(lp81
I-15
aI15
aaa(lp82
S'angL'
p83
a(lp84
I-15
aI15
aaa(lp85
S'detdist'
p86
a(lp87
I630
aI1000
aaa(lp88
S'msdist'
p89
a(lp90
I1900
aI3100
aaa(lp91
S'anShRot'
p92
a(lp93
I1
aI20
aaa(lp94
S'anShLift'
p95
a(lp96
I0
aI165
aaa(lp97
S'sgL'
p98
a(lp99
I-10
aI10
aaa(lp100
S'sgU'
p101
a(lp102
I-15
aI15
aaatp103
Rp104
sS'lock'
p105
(lp106
S'ki'
p107
aF2.85595
asS'scattSign'
p108
cnumpy.core.multiarray
_reconstruct
p109
(cnumpy.matrixlib.defmatrix
matrix
p110
(I0
tp111
S'b'
p112
tp113
Rp114
(I1
(I1
I3
tp115
cnumpy
dtype
p116
(S'i8'
p117
I0
I1
tp118
Rp119
(I3
S'<'
p120
NNNI-1
I-1
I0
tp121
bI00
S'\x01\x00\x00\x00\x00\x00\x00\x00\xff\xff\xff\xff\xff\xff\xff\xff\x01\x00\x00\x00\x00\x00\x00\x00'
p122
tp123
bsS'colli'
p124
(lp125
I600
aI60
aI30
aI30
asS'd_monok'
p126
F3.35395
sS'd_ana'
p127
F3.35395
sS'axisOffsetDict'
p128
g5
((lp129
(lp130
S'mvfoc'
p131
aI0
aa(lp132
S'monok'
p133
aF-0.37
aa(lp134
S'monho'
p135
aF0.28
aa(lp136
S's2th'
p137
aF0.07
aa(lp138
S'om'
p139
aI0
aa(lp140
S'ath'
p141
aF-0.655
aa(lp142
S'sadist'
p143
aI0
aa(lp144
S'detang'
p145
aF-0.4
aa(lp146
S'mtrX'
p147
aI0
aa(lp148
S'mtrY'
p149
aI0
aa(lp150
S'mgL'
p151
aI0
aa(lp152
S'mgU'
p153
aI0
aa(lp154
S's1X'
p155
aI0
aa(lp156
S's1Y'
p157
aI0
aa(lp158
S's1L'
p159
aI0
aa(lp160
S's1U'
p161
aI0
aa(lp162
S's2X'
p163
aI0
aa(lp164
S's2Y'
p165
aI0
aa(lp166
S's2L'
p167
aI0
aa(lp168
S's2U'
p169
aI0
aa(lp170
S'strX'
p171
aI0
aa(lp172
S'strY'
p173
aI0
aa(lp174
S'agU'
p175
aI0
aa(lp176
S'agL'
p177
aI0
aa(lp178
S'antrX'
p179
aI0
aa(lp180
S'antrY'
p181
aI0
aa(lp182
S'angU'
p183
aI0
aa(lp184
S'angL'
p185
aI0
aa(lp186
S'detdist'
p187
aI0
aa(lp188
S'msdist'
p189
aI0
aa(lp190
S'anShRot'
p191
aI0
aa(lp192
S'anShLift'
p193
aI0
aa(lp194
S'sgL'
p195
aI0
aa(lp196
S'sgU'
p197
aI0
aatp198
Rp199
sb.