ccollections
OrderedDict
p0
((lp1
(lp2
S'mvfoc'
p3
acnumpy.core.multiarray
scalar
p4
(cnumpy
dtype
p5
(S'f8'
p6
I0
I1
tp7
Rp8
(I3
S'<'
p9
NNNI-1
I-1
I0
tp10
bS'z\xc6\xf5(\\\xffX@'
p11
tp12
Rp13
aa(lp14
S'monok'
p15
ag4
(g8
S'\xe0\x00\x00\x00\x00\x007@'
p16
tp17
Rp18
aa(lp19
S'monho'
p20
ag4
(g8
S'83333sE@'
p21
tp22
Rp23
aa(lp24
S's2th'
p25
ag4
(g8
S'\x97\xc3\xf5(\\\xdfS@'
p26
tp27
Rp28
aa(lp29
S'om'
p30
ag4
(g8
S'\x92\x85\xebQ\xb8~C@'
p31
tp32
Rp33
aa(lp34
S'ath'
p35
ag4
(g8
S' G\xe1z\x14\x0eQ\xc0'
p36
tp37
Rp38
aa(lp39
S'sadist'
p40
aI0
aa(lp41
S'detang'
p42
ag4
(g8
S'\xf1[\x8f\xc2\xf5\x88F@'
p43
tp44
Rp45
aa(lp46
S'mtrX'
p47
aI0
aa(lp48
S'mtrY'
p49
aI0
aa(lp50
S'mgL'
p51
aI0
aa(lp52
S'mgU'
p53
aI0
aa(lp54
S's1X'
p55
aI0
aa(lp56
S's1Y'
p57
aI0
aa(lp58
S's1L'
p59
aI0
aa(lp60
S's1U'
p61
aI0
aa(lp62
S's2X'
p63
aI0
aa(lp64
S's2Y'
p65
aI0
aa(lp66
S's2L'
p67
aI0
aa(lp68
S's2U'
p69
aI0
aa(lp70
S'strX'
p71
aI0
aa(lp72
S'strY'
p73
aI0
aa(lp74
S'agU'
p75
aI0
aa(lp76
S'agL'
p77
aI0
aa(lp78
S'antrX'
p79
aI0
aa(lp80
S'antrY'
p81
aI0
aa(lp82
S'angU'
p83
aI0
aa(lp84
S'angL'
p85
aI0
aa(lp86
S'detdist'
p87
aI0
aa(lp88
S'msdist'
p89
aI0
aa(lp90
S'anShRot'
p91
aI0
aa(lp92
S'anShLift'
p93
aI0
aa(lp94
S'sgL'
p95
ag4
(g8
S'\xa7Q\xb8\x1e\x85\xeb\x0b@'
p96
tp97
Rp98
aa(lp99
S'sgU'
p100
ag4
(g8
S'7\xe1z\x14\xaeG\x03\xc0'
p101
tp102
Rp103
aatp104
Rp105
.