ccollections
OrderedDict
p0
((lp1
(lp2
S'mvfoc'
p3
aI0
aa(lp4
S'monok'
p5
aI0
aa(lp6
S'monho'
p7
aI0
aa(lp8
S's2th'
p9
aI0
aa(lp10
S'om'
p11
aI0
aa(lp12
S'ath'
p13
aI0
aa(lp14
S'sadist'
p15
aI0
aa(lp16
S'detang'
p17
aI0
aa(lp18
S'mtrX'
p19
aI0
aa(lp20
S'mtrY'
p21
aI0
aa(lp22
S'mgL'
p23
aI0
aa(lp24
S'mgU'
p25
aI0
aa(lp26
S's1X'
p27
aI0
aa(lp28
S's1Y'
p29
aI0
aa(lp30
S's1L'
p31
aI0
aa(lp32
S's1U'
p33
aI0
aa(lp34
S's2X'
p35
aI0
aa(lp36
S's2Y'
p37
aI0
aa(lp38
S's2L'
p39
aI0
aa(lp40
S's2U'
p41
aI0
aa(lp42
S'strX'
p43
aI0
aa(lp44
S'strY'
p45
aI0
aa(lp46
S'agU'
p47
aI0
aa(lp48
S'agL'
p49
aI0
aa(lp50
S'antrX'
p51
aI0
aa(lp52
S'antrY'
p53
aI0
aa(lp54
S'angU'
p55
aI0
aa(lp56
S'angL'
p57
aI0
aa(lp58
S'detdist'
p59
aI0
aa(lp60
S'msdist'
p61
aI0
aa(lp62
S'anShRot'
p63
aI0
aa(lp64
S'anShLift'
p65
aI0
aa(lp66
S'sgL'
p67
aI0
aa(lp68
S'sgU'
p69
aI0
aatp70
Rp71
.